
main.elf:     file format elf32-littleriscv


Disassembly of section .text:

80000000 <start>:
80000000:	000022b7          	lui	t0,0x2
80000004:	80228293          	addi	t0,t0,-2046 # 1802 <start-0x7fffe7fe>
80000008:	3002a073          	csrs	mstatus,t0
8000000c:	000012b7          	lui	t0,0x1
80000010:	80028293          	addi	t0,t0,-2048 # 800 <start-0x7ffff800>
80000014:	3042a073          	csrs	mie,t0
80000018:	00000297          	auipc	t0,0x0
8000001c:	0cc28293          	addi	t0,t0,204 # 800000e4 <interrupt_handler>
80000020:	30529073          	csrw	mtvec,t0
80000024:	0dc000ef          	jal	ra,80000100 <main>

80000028 <uart_init>:
80000028:	ff010113          	addi	sp,sp,-16
8000002c:	00812623          	sw	s0,12(sp)
80000030:	01010413          	addi	s0,sp,16
80000034:	100007b7          	lui	a5,0x10000
80000038:	00178793          	addi	a5,a5,1 # 10000001 <start-0x6fffffff>
8000003c:	00078023          	sb	zero,0(a5)
80000040:	100007b7          	lui	a5,0x10000
80000044:	00378793          	addi	a5,a5,3 # 10000003 <start-0x6ffffffd>
80000048:	f8000713          	li	a4,-128
8000004c:	00e78023          	sb	a4,0(a5)
80000050:	100007b7          	lui	a5,0x10000
80000054:	00300713          	li	a4,3
80000058:	00e78023          	sb	a4,0(a5) # 10000000 <start-0x70000000>
8000005c:	100007b7          	lui	a5,0x10000
80000060:	00078023          	sb	zero,0(a5) # 10000000 <start-0x70000000>
80000064:	100007b7          	lui	a5,0x10000
80000068:	00378793          	addi	a5,a5,3 # 10000003 <start-0x6ffffffd>
8000006c:	00300713          	li	a4,3
80000070:	00e78023          	sb	a4,0(a5)
80000074:	100007b7          	lui	a5,0x10000
80000078:	00278793          	addi	a5,a5,2 # 10000002 <start-0x6ffffffe>
8000007c:	00700713          	li	a4,7
80000080:	00e78023          	sb	a4,0(a5)
80000084:	100007b7          	lui	a5,0x10000
80000088:	00178793          	addi	a5,a5,1 # 10000001 <start-0x6fffffff>
8000008c:	00300713          	li	a4,3
80000090:	00e78023          	sb	a4,0(a5)
80000094:	00000013          	nop
80000098:	00c12403          	lw	s0,12(sp)
8000009c:	01010113          	addi	sp,sp,16
800000a0:	00008067          	ret

800000a4 <plic_init>:
800000a4:	ff010113          	addi	sp,sp,-16
800000a8:	00812623          	sw	s0,12(sp)
800000ac:	01010413          	addi	s0,sp,16
800000b0:	0c0007b7          	lui	a5,0xc000
800000b4:	04078793          	addi	a5,a5,64 # c000040 <start-0x73ffffc0>
800000b8:	00100713          	li	a4,1
800000bc:	00e7a023          	sw	a4,0(a5)
800000c0:	0c0027b7          	lui	a5,0xc002
800000c4:	00010737          	lui	a4,0x10
800000c8:	00e7a023          	sw	a4,0(a5) # c002000 <start-0x73ffe000>
800000cc:	0c2007b7          	lui	a5,0xc200
800000d0:	0007a023          	sw	zero,0(a5) # c200000 <start-0x73e00000>
800000d4:	00000013          	nop
800000d8:	00c12403          	lw	s0,12(sp)
800000dc:	01010113          	addi	sp,sp,16
800000e0:	00008067          	ret

800000e4 <interrupt_handler>:
800000e4:	ff010113          	addi	sp,sp,-16
800000e8:	00812623          	sw	s0,12(sp)
800000ec:	01010413          	addi	s0,sp,16
800000f0:	00000013          	nop
800000f4:	00c12403          	lw	s0,12(sp)
800000f8:	01010113          	addi	sp,sp,16
800000fc:	00008067          	ret

80000100 <main>:
80000100:	ff010113          	addi	sp,sp,-16
80000104:	00112623          	sw	ra,12(sp)
80000108:	00812423          	sw	s0,8(sp)
8000010c:	01010413          	addi	s0,sp,16
80000110:	f95ff0ef          	jal	ra,800000a4 <plic_init>
80000114:	f15ff0ef          	jal	ra,80000028 <uart_init>
80000118:	00000793          	li	a5,0
8000011c:	00078513          	mv	a0,a5
80000120:	00c12083          	lw	ra,12(sp)
80000124:	00812403          	lw	s0,8(sp)
80000128:	01010113          	addi	sp,sp,16
8000012c:	00008067          	ret

main.elf:     file format elf32-littleriscv


Disassembly of section .text:

80000000 <start>:
80000000:	000022b7          	lui	t0,0x2
80000004:	80228293          	addi	t0,t0,-2046 # 1802 <start-0x7fffe7fe>
80000008:	3002a073          	csrs	mstatus,t0
8000000c:	000012b7          	lui	t0,0x1
80000010:	80028293          	addi	t0,t0,-2048 # 800 <start-0x7ffff800>
80000014:	3042a073          	csrs	mie,t0
80000018:	00000297          	auipc	t0,0x0
8000001c:	19428293          	addi	t0,t0,404 # 800001ac <interrupt_handler>
80000020:	30529073          	csrw	mtvec,t0
80000024:	1a4000ef          	jal	ra,800001c8 <main>

80000028 <uart_init>:
80000028:	ff010113          	addi	sp,sp,-16
8000002c:	00812623          	sw	s0,12(sp)
80000030:	01010413          	addi	s0,sp,16
80000034:	100007b7          	lui	a5,0x10000
80000038:	00178793          	addi	a5,a5,1 # 10000001 <start-0x6fffffff>
8000003c:	00078023          	sb	zero,0(a5)
80000040:	100007b7          	lui	a5,0x10000
80000044:	00378793          	addi	a5,a5,3 # 10000003 <start-0x6ffffffd>
80000048:	f8000713          	li	a4,-128
8000004c:	00e78023          	sb	a4,0(a5)
80000050:	100007b7          	lui	a5,0x10000
80000054:	00300713          	li	a4,3
80000058:	00e78023          	sb	a4,0(a5) # 10000000 <start-0x70000000>
8000005c:	100007b7          	lui	a5,0x10000
80000060:	00078023          	sb	zero,0(a5) # 10000000 <start-0x70000000>
80000064:	100007b7          	lui	a5,0x10000
80000068:	00378793          	addi	a5,a5,3 # 10000003 <start-0x6ffffffd>
8000006c:	00300713          	li	a4,3
80000070:	00e78023          	sb	a4,0(a5)
80000074:	100007b7          	lui	a5,0x10000
80000078:	00278793          	addi	a5,a5,2 # 10000002 <start-0x6ffffffe>
8000007c:	00700713          	li	a4,7
80000080:	00e78023          	sb	a4,0(a5)
80000084:	100007b7          	lui	a5,0x10000
80000088:	00178793          	addi	a5,a5,1 # 10000001 <start-0x6fffffff>
8000008c:	00300713          	li	a4,3
80000090:	00e78023          	sb	a4,0(a5)
80000094:	00000013          	nop
80000098:	00c12403          	lw	s0,12(sp)
8000009c:	01010113          	addi	sp,sp,16
800000a0:	00008067          	ret

800000a4 <plic_init>:
800000a4:	ff010113          	addi	sp,sp,-16
800000a8:	00812623          	sw	s0,12(sp)
800000ac:	01010413          	addi	s0,sp,16
800000b0:	0c0007b7          	lui	a5,0xc000
800000b4:	04078793          	addi	a5,a5,64 # c000040 <start-0x73ffffc0>
800000b8:	00100713          	li	a4,1
800000bc:	00e7a023          	sw	a4,0(a5)
800000c0:	0c0027b7          	lui	a5,0xc002
800000c4:	00010737          	lui	a4,0x10
800000c8:	00e7a023          	sw	a4,0(a5) # c002000 <start-0x73ffe000>
800000cc:	0c2007b7          	lui	a5,0xc200
800000d0:	0007a023          	sw	zero,0(a5) # c200000 <start-0x73e00000>
800000d4:	00000013          	nop
800000d8:	00c12403          	lw	s0,12(sp)
800000dc:	01010113          	addi	sp,sp,16
800000e0:	00008067          	ret

800000e4 <delay>:
800000e4:	fe010113          	addi	sp,sp,-32
800000e8:	00812e23          	sw	s0,28(sp)
800000ec:	02010413          	addi	s0,sp,32
800000f0:	fe042623          	sw	zero,-20(s0)
800000f4:	0100006f          	j	80000104 <delay+0x20>
800000f8:	fec42783          	lw	a5,-20(s0)
800000fc:	00178793          	addi	a5,a5,1
80000100:	fef42623          	sw	a5,-20(s0)
80000104:	fec42703          	lw	a4,-20(s0)
80000108:	000187b7          	lui	a5,0x18
8000010c:	69f78793          	addi	a5,a5,1695 # 1869f <start-0x7ffe7961>
80000110:	fee7d4e3          	bge	a5,a4,800000f8 <delay+0x14>
80000114:	00000013          	nop
80000118:	00000013          	nop
8000011c:	01c12403          	lw	s0,28(sp)
80000120:	02010113          	addi	sp,sp,32
80000124:	00008067          	ret

80000128 <write_to_uart>:
80000128:	ff010113          	addi	sp,sp,-16
8000012c:	00112623          	sw	ra,12(sp)
80000130:	00812423          	sw	s0,8(sp)
80000134:	01010413          	addi	s0,sp,16
80000138:	100007b7          	lui	a5,0x10000
8000013c:	04800713          	li	a4,72
80000140:	00e78023          	sb	a4,0(a5) # 10000000 <start-0x70000000>
80000144:	fa1ff0ef          	jal	ra,800000e4 <delay>
80000148:	100007b7          	lui	a5,0x10000
8000014c:	06500713          	li	a4,101
80000150:	00e78023          	sb	a4,0(a5) # 10000000 <start-0x70000000>
80000154:	f91ff0ef          	jal	ra,800000e4 <delay>
80000158:	100007b7          	lui	a5,0x10000
8000015c:	06c00713          	li	a4,108
80000160:	00e78023          	sb	a4,0(a5) # 10000000 <start-0x70000000>
80000164:	f81ff0ef          	jal	ra,800000e4 <delay>
80000168:	100007b7          	lui	a5,0x10000
8000016c:	06c00713          	li	a4,108
80000170:	00e78023          	sb	a4,0(a5) # 10000000 <start-0x70000000>
80000174:	f71ff0ef          	jal	ra,800000e4 <delay>
80000178:	100007b7          	lui	a5,0x10000
8000017c:	06f00713          	li	a4,111
80000180:	00e78023          	sb	a4,0(a5) # 10000000 <start-0x70000000>
80000184:	f61ff0ef          	jal	ra,800000e4 <delay>
80000188:	100007b7          	lui	a5,0x10000
8000018c:	00a00713          	li	a4,10
80000190:	00e78023          	sb	a4,0(a5) # 10000000 <start-0x70000000>
80000194:	f51ff0ef          	jal	ra,800000e4 <delay>
80000198:	00000013          	nop
8000019c:	00c12083          	lw	ra,12(sp)
800001a0:	00812403          	lw	s0,8(sp)
800001a4:	01010113          	addi	sp,sp,16
800001a8:	00008067          	ret

800001ac <interrupt_handler>:
800001ac:	ff010113          	addi	sp,sp,-16
800001b0:	00812623          	sw	s0,12(sp)
800001b4:	01010413          	addi	s0,sp,16
800001b8:	00000013          	nop
800001bc:	00c12403          	lw	s0,12(sp)
800001c0:	01010113          	addi	sp,sp,16
800001c4:	00008067          	ret

800001c8 <main>:
800001c8:	ff010113          	addi	sp,sp,-16
800001cc:	00112623          	sw	ra,12(sp)
800001d0:	00812423          	sw	s0,8(sp)
800001d4:	01010413          	addi	s0,sp,16
800001d8:	ecdff0ef          	jal	ra,800000a4 <plic_init>
800001dc:	e4dff0ef          	jal	ra,80000028 <uart_init>
800001e0:	f49ff0ef          	jal	ra,80000128 <write_to_uart>
800001e4:	00000793          	li	a5,0
800001e8:	00078513          	mv	a0,a5
800001ec:	00c12083          	lw	ra,12(sp)
800001f0:	00812403          	lw	s0,8(sp)
800001f4:	01010113          	addi	sp,sp,16
800001f8:	00008067          	ret

main.elf:     file format elf32-littleriscv


Disassembly of section .text:

80000000 <start>:
80000000:	000022b7          	lui	t0,0x2
80000004:	80228293          	addi	t0,t0,-2046 # 1802 <start-0x7fffe7fe>
80000008:	3002a073          	csrs	mstatus,t0
8000000c:	000012b7          	lui	t0,0x1
80000010:	80028293          	addi	t0,t0,-2048 # 800 <start-0x7ffff800>
80000014:	3042a073          	csrs	mie,t0
80000018:	00000297          	auipc	t0,0x0
8000001c:	1a428293          	addi	t0,t0,420 # 800001bc <interrupt_handler>
80000020:	30529073          	csrw	mtvec,t0
80000024:	000042b7          	lui	t0,0x4
80000028:	80000337          	lui	t1,0x80000
8000002c:	00628133          	add	sp,t0,t1
80000030:	1e8000ef          	jal	ra,80000218 <main>

80000034 <loop>:
80000034:	0000006f          	j	80000034 <loop>

80000038 <uart_init>:
80000038:	ff010113          	addi	sp,sp,-16
8000003c:	00812623          	sw	s0,12(sp)
80000040:	01010413          	addi	s0,sp,16
80000044:	100007b7          	lui	a5,0x10000
80000048:	00178793          	addi	a5,a5,1 # 10000001 <start-0x6fffffff>
8000004c:	00078023          	sb	zero,0(a5)
80000050:	100007b7          	lui	a5,0x10000
80000054:	00378793          	addi	a5,a5,3 # 10000003 <start-0x6ffffffd>
80000058:	f8000713          	li	a4,-128
8000005c:	00e78023          	sb	a4,0(a5)
80000060:	100007b7          	lui	a5,0x10000
80000064:	00300713          	li	a4,3
80000068:	00e78023          	sb	a4,0(a5) # 10000000 <start-0x70000000>
8000006c:	100007b7          	lui	a5,0x10000
80000070:	00078023          	sb	zero,0(a5) # 10000000 <start-0x70000000>
80000074:	100007b7          	lui	a5,0x10000
80000078:	00378793          	addi	a5,a5,3 # 10000003 <start-0x6ffffffd>
8000007c:	00300713          	li	a4,3
80000080:	00e78023          	sb	a4,0(a5)
80000084:	100007b7          	lui	a5,0x10000
80000088:	00278793          	addi	a5,a5,2 # 10000002 <start-0x6ffffffe>
8000008c:	00700713          	li	a4,7
80000090:	00e78023          	sb	a4,0(a5)
80000094:	100007b7          	lui	a5,0x10000
80000098:	00178793          	addi	a5,a5,1 # 10000001 <start-0x6fffffff>
8000009c:	00300713          	li	a4,3
800000a0:	00e78023          	sb	a4,0(a5)
800000a4:	00000013          	nop
800000a8:	00c12403          	lw	s0,12(sp)
800000ac:	01010113          	addi	sp,sp,16
800000b0:	00008067          	ret

800000b4 <plic_init>:
800000b4:	ff010113          	addi	sp,sp,-16
800000b8:	00812623          	sw	s0,12(sp)
800000bc:	01010413          	addi	s0,sp,16
800000c0:	0c0007b7          	lui	a5,0xc000
800000c4:	02878793          	addi	a5,a5,40 # c000028 <start-0x73ffffd8>
800000c8:	00100713          	li	a4,1
800000cc:	00e7a023          	sw	a4,0(a5)
800000d0:	0c0027b7          	lui	a5,0xc002
800000d4:	40000713          	li	a4,1024
800000d8:	00e7a023          	sw	a4,0(a5) # c002000 <start-0x73ffe000>
800000dc:	0c2007b7          	lui	a5,0xc200
800000e0:	0007a023          	sw	zero,0(a5) # c200000 <start-0x73e00000>
800000e4:	00000013          	nop
800000e8:	00c12403          	lw	s0,12(sp)
800000ec:	01010113          	addi	sp,sp,16
800000f0:	00008067          	ret

800000f4 <delay>:
800000f4:	fe010113          	addi	sp,sp,-32
800000f8:	00812e23          	sw	s0,28(sp)
800000fc:	02010413          	addi	s0,sp,32
80000100:	fe042623          	sw	zero,-20(s0)
80000104:	0100006f          	j	80000114 <delay+0x20>
80000108:	fec42783          	lw	a5,-20(s0)
8000010c:	00178793          	addi	a5,a5,1
80000110:	fef42623          	sw	a5,-20(s0)
80000114:	fec42703          	lw	a4,-20(s0)
80000118:	000187b7          	lui	a5,0x18
8000011c:	69f78793          	addi	a5,a5,1695 # 1869f <start-0x7ffe7961>
80000120:	fee7d4e3          	bge	a5,a4,80000108 <delay+0x14>
80000124:	00000013          	nop
80000128:	00000013          	nop
8000012c:	01c12403          	lw	s0,28(sp)
80000130:	02010113          	addi	sp,sp,32
80000134:	00008067          	ret

80000138 <write_to_uart>:
80000138:	ff010113          	addi	sp,sp,-16
8000013c:	00112623          	sw	ra,12(sp)
80000140:	00812423          	sw	s0,8(sp)
80000144:	01010413          	addi	s0,sp,16
80000148:	100007b7          	lui	a5,0x10000
8000014c:	04800713          	li	a4,72
80000150:	00e78023          	sb	a4,0(a5) # 10000000 <start-0x70000000>
80000154:	fa1ff0ef          	jal	ra,800000f4 <delay>
80000158:	100007b7          	lui	a5,0x10000
8000015c:	06500713          	li	a4,101
80000160:	00e78023          	sb	a4,0(a5) # 10000000 <start-0x70000000>
80000164:	f91ff0ef          	jal	ra,800000f4 <delay>
80000168:	100007b7          	lui	a5,0x10000
8000016c:	06c00713          	li	a4,108
80000170:	00e78023          	sb	a4,0(a5) # 10000000 <start-0x70000000>
80000174:	f81ff0ef          	jal	ra,800000f4 <delay>
80000178:	100007b7          	lui	a5,0x10000
8000017c:	06c00713          	li	a4,108
80000180:	00e78023          	sb	a4,0(a5) # 10000000 <start-0x70000000>
80000184:	f71ff0ef          	jal	ra,800000f4 <delay>
80000188:	100007b7          	lui	a5,0x10000
8000018c:	06f00713          	li	a4,111
80000190:	00e78023          	sb	a4,0(a5) # 10000000 <start-0x70000000>
80000194:	f61ff0ef          	jal	ra,800000f4 <delay>
80000198:	100007b7          	lui	a5,0x10000
8000019c:	00a00713          	li	a4,10
800001a0:	00e78023          	sb	a4,0(a5) # 10000000 <start-0x70000000>
800001a4:	f51ff0ef          	jal	ra,800000f4 <delay>
800001a8:	00000013          	nop
800001ac:	00c12083          	lw	ra,12(sp)
800001b0:	00812403          	lw	s0,8(sp)
800001b4:	01010113          	addi	sp,sp,16
800001b8:	00008067          	ret

800001bc <interrupt_handler>:
800001bc:	ff010113          	addi	sp,sp,-16
800001c0:	00812623          	sw	s0,12(sp)
800001c4:	01010413          	addi	s0,sp,16
800001c8:	0c2007b7          	lui	a5,0xc200
800001cc:	00478793          	addi	a5,a5,4 # c200004 <start-0x73dffffc>
800001d0:	0007a783          	lw	a5,0(a5)
800001d4:	00078713          	mv	a4,a5
800001d8:	800007b7          	lui	a5,0x80000
800001dc:	24e7a823          	sw	a4,592(a5) # 80000250 <Plic_Claim_Id+0x0>
800001e0:	00000013          	nop
800001e4:	00c12403          	lw	s0,12(sp)
800001e8:	01010113          	addi	sp,sp,16
800001ec:	00008067          	ret

800001f0 <w_mstatus>:
800001f0:	fe010113          	addi	sp,sp,-32
800001f4:	00812e23          	sw	s0,28(sp)
800001f8:	02010413          	addi	s0,sp,32
800001fc:	fea42623          	sw	a0,-20(s0)
80000200:	fec42783          	lw	a5,-20(s0)
80000204:	30079073          	csrw	mstatus,a5
80000208:	00000013          	nop
8000020c:	01c12403          	lw	s0,28(sp)
80000210:	02010113          	addi	sp,sp,32
80000214:	00008067          	ret

80000218 <main>:
80000218:	ff010113          	addi	sp,sp,-16
8000021c:	00112623          	sw	ra,12(sp)
80000220:	00812423          	sw	s0,8(sp)
80000224:	01010413          	addi	s0,sp,16
80000228:	e8dff0ef          	jal	ra,800000b4 <plic_init>
8000022c:	e0dff0ef          	jal	ra,80000038 <uart_init>
80000230:	10000513          	li	a0,256
80000234:	fbdff0ef          	jal	ra,800001f0 <w_mstatus>
80000238:	00000793          	li	a5,0
8000023c:	00078513          	mv	a0,a5
80000240:	00c12083          	lw	ra,12(sp)
80000244:	00812403          	lw	s0,8(sp)
80000248:	01010113          	addi	sp,sp,16
8000024c:	00008067          	ret
